CCS PCM C Compiler, Version 4.074, 49549               27-Aðu-12 19:23

               Filename: E:\DONANIM_PROJE\PÝC C\2\buton_uygulamasý\main.lst

               ROM used: 104 words (1%)
                         Largest free fragment is 2048
               RAM used: 7 (2%) at main() level
                         7 (2%) worst case
               Stack:    0 locations

*
0000:  MOVLW  00
0001:  MOVWF  0A
0002:  GOTO   004
0003:  NOP
.................... #include "E:\DONANIM_PROJE\PÝC C\2\buton_uygulamasý\main.h" 
.................... #include <16F877A.h> 
.................... //////// Standard Header file for the PIC16F877A device //////////////// 
.................... #device PIC16F877A 
.................... #list 
....................  
.................... #device adc=8 
....................  
.................... #FUSES NOWDT                    //No Watch Dog Timer 
.................... #FUSES XT                      //Low power osc < 200 khz 
.................... #FUSES NOPUT                    //No Power Up Timer 
.................... #FUSES NOPROTECT                //Code not protected from reading 
.................... #FUSES NODEBUG                  //No Debug mode for ICD 
.................... #FUSES NOBROWNOUT               //No brownout reset 
.................... #FUSES NOLVP                    //No low voltage prgming, B3(PIC16) or B5(PIC18) used for I/O 
.................... #FUSES NOCPD                    //No EE protection 
.................... #FUSES NOWRT                    //Program memory not write protected 
....................  
.................... #use delay(clock=40000000) 
.................... #use rs232(baud=9600,parity=N,xmit=PIN_C6,rcv=PIN_C7,bits=8) 
....................  
....................  
....................  
....................  
.................... void main() 
.................... { 
*
0004:  CLRF   04
0005:  BCF    03.7
0006:  MOVLW  1F
0007:  ANDWF  03,F
0008:  MOVLW  40
0009:  BSF    03.5
000A:  MOVWF  19
000B:  MOVLW  A2
000C:  MOVWF  18
000D:  MOVLW  90
000E:  BCF    03.5
000F:  MOVWF  18
0010:  BSF    03.5
0011:  BSF    1F.0
0012:  BSF    1F.1
0013:  BSF    1F.2
0014:  BCF    1F.3
0015:  MOVLW  07
0016:  MOVWF  1C
....................  
....................    setup_adc_ports(NO_ANALOGS); 
*
001A:  BSF    03.5
001B:  BSF    1F.0
001C:  BSF    1F.1
001D:  BSF    1F.2
001E:  BCF    1F.3
....................    setup_adc(ADC_OFF); 
001F:  BCF    03.5
0020:  BCF    1F.0
....................    setup_psp(PSP_DISABLED); 
0021:  BSF    03.5
0022:  BCF    09.4
....................    setup_spi(SPI_SS_DISABLED); 
0023:  BCF    03.5
0024:  BCF    14.5
0025:  BCF    20.5
0026:  MOVF   20,W
0027:  BSF    03.5
0028:  MOVWF  07
0029:  BCF    03.5
002A:  BSF    20.4
002B:  MOVF   20,W
002C:  BSF    03.5
002D:  MOVWF  07
002E:  BCF    03.5
002F:  BCF    20.3
0030:  MOVF   20,W
0031:  BSF    03.5
0032:  MOVWF  07
0033:  MOVLW  01
0034:  BCF    03.5
0035:  MOVWF  14
0036:  MOVLW  00
0037:  BSF    03.5
0038:  MOVWF  14
....................    setup_timer_0(RTCC_INTERNAL|RTCC_DIV_1); 
0039:  MOVF   01,W
003A:  ANDLW  C7
003B:  IORLW  08
003C:  MOVWF  01
....................    setup_timer_1(T1_DISABLED); 
003D:  BCF    03.5
003E:  CLRF   10
....................    setup_timer_2(T2_DISABLED,0,1); 
003F:  MOVLW  00
0040:  MOVWF  78
0041:  MOVWF  12
0042:  MOVLW  00
0043:  BSF    03.5
0044:  MOVWF  12
....................    setup_comparator(NC_NC_NC_NC); 
0045:  MOVLW  07
0046:  MOVWF  1C
0047:  MOVF   05,W
0048:  MOVLW  21
0049:  MOVWF  77
004A:  DECFSZ 77,F
004B:  GOTO   04A
004C:  MOVF   1C,W
004D:  BCF    03.5
004E:  BCF    0D.6
....................    setup_vref(FALSE); 
004F:  BSF    03.5
0050:  CLRF   1D
....................  
....................  set_tris_a(0x01); 
0051:  MOVLW  01
0052:  MOVWF  05
....................  set_tris_b(0x00); 
0053:  MOVLW  00
0054:  MOVWF  06
....................   
....................  output_b(0x00); 
0055:  CLRF   06
0056:  BCF    03.5
0057:  CLRF   06
....................  while(1) 
....................  { 
....................  if (input(pin_a0)) 
0058:  BSF    03.5
0059:  BSF    05.0
005A:  BCF    03.5
005B:  BTFSS  05.0
005C:  GOTO   062
....................  output_high(pin_b0); 
005D:  BSF    03.5
005E:  BCF    06.0
005F:  BCF    03.5
0060:  BSF    06.0
....................   
....................  else 
0061:  GOTO   066
....................  output_low(pin_b0); 
0062:  BSF    03.5
0063:  BCF    06.0
0064:  BCF    03.5
0065:  BCF    06.0
....................  } 
0066:  GOTO   058
....................   
....................   
....................   
.................... } 
0067:  SLEEP

Configuration Fuses:
   Word  1: 3F39   XT NOWDT NOPUT NODEBUG NOPROTECT NOBROWNOUT NOLVP NOCPD NOWRT
