CCS PCM C Compiler, Version 4.074, 49549               11-Eyl-12 15:30

               Filename: E:\DONANIM_PROJE\PÝC C\7\timer 1_zamanlayýcý\timer_1\main.lst

               ROM used: 158 words (2%)
                         Largest free fragment is 2048
               RAM used: 16 (4%) at main() level
                         16 (4%) worst case
               Stack:    1 worst case (0 in main + 1 for interrupts)

*
0000:  MOVLW  00
0001:  MOVWF  0A
0002:  GOTO   048
0003:  NOP
0004:  MOVWF  7F
0005:  SWAPF  03,W
0006:  CLRF   03
0007:  MOVWF  21
0008:  MOVF   0A,W
0009:  MOVWF  20
000A:  CLRF   0A
000B:  MOVF   04,W
000C:  MOVWF  22
000D:  MOVF   77,W
000E:  MOVWF  23
000F:  MOVF   78,W
0010:  MOVWF  24
0011:  MOVF   79,W
0012:  MOVWF  25
0013:  MOVF   7A,W
0014:  MOVWF  26
0015:  MOVF   7B,W
0016:  MOVWF  27
0017:  BCF    03.7
0018:  BCF    03.5
0019:  MOVLW  8C
001A:  MOVWF  04
001B:  BTFSS  00.0
001C:  GOTO   01F
001D:  BTFSC  0C.0
001E:  GOTO   032
001F:  MOVF   22,W
0020:  MOVWF  04
0021:  MOVF   23,W
0022:  MOVWF  77
0023:  MOVF   24,W
0024:  MOVWF  78
0025:  MOVF   25,W
0026:  MOVWF  79
0027:  MOVF   26,W
0028:  MOVWF  7A
0029:  MOVF   27,W
002A:  MOVWF  7B
002B:  MOVF   20,W
002C:  MOVWF  0A
002D:  SWAPF  21,W
002E:  MOVWF  03
002F:  SWAPF  7F,F
0030:  SWAPF  7F,W
0031:  RETFIE
0032:  BCF    0A.3
0033:  BCF    0A.4
0034:  GOTO   035
.................... #include "E:\DONANIM_PROJE\PÝC C\7\timer 1_zamanlayýcý\timer_1\main.h" 
.................... #include <16F877A.h> 
.................... //////// Standard Header file for the PIC16F877A device //////////////// 
.................... #device PIC16F877A 
.................... #list 
....................  
.................... #device adc=8 
....................  
.................... #FUSES NOWDT                    //No Watch Dog Timer 
.................... #FUSES XT                    //Low power osc < 200 khz 
.................... #FUSES NOPUT                    //No Power Up Timer 
.................... #FUSES NOPROTECT                //Code not protected from reading 
.................... #FUSES NODEBUG                  //No Debug mode for ICD 
.................... #FUSES NOBROWNOUT               //No brownout reset 
.................... #FUSES NOLVP                    //No low voltage prgming, B3(PIC16) or B5(PIC18) used for I/O 
.................... #FUSES NOCPD                    //No EE protection 
.................... #FUSES NOWRT                    //Program memory not write protected 
....................  
.................... #use delay(clock=4000000) 
.................... #use rs232(baud=9600,parity=N,xmit=PIN_C6,rcv=PIN_C7,bits=8) 
....................  
....................  
....................  
....................  
....................  
....................  
....................  
.................... #use fast_io(b) 
....................  
.................... int i=0; 
*
005B:  BCF    03.5
005C:  CLRF   28
.................... #int_timer1 //timer1 kesmesi 
.................... void timer1_kesme() 
.................... { 
....................  set_timer1(64286); //timer0 degeri belirleniyor projeye gore hseplanýr. 
*
0035:  MOVLW  FB
0036:  MOVWF  0F
0037:  MOVLW  1E
0038:  MOVWF  0E
....................  i++; 
0039:  INCF   28,F
....................   
.................... if(i==50) 
003A:  MOVF   28,W
003B:  SUBLW  32
003C:  BTFSC  03.2
....................  output_high(pin_b0); 
003D:  BSF    06.0
....................  if(i==100) 
003E:  MOVF   28,W
003F:  SUBLW  64
0040:  BTFSS  03.2
0041:  GOTO   044
....................  { 
....................  output_low(pin_b0); 
0042:  BCF    06.0
....................   
....................  i=0; 
0043:  CLRF   28
.................... } 
.................... } 
0044:  BCF    0C.0
0045:  BCF    0A.3
0046:  BCF    0A.4
0047:  GOTO   01F
.................... void main() 
.................... { 
0048:  CLRF   04
0049:  BCF    03.7
004A:  MOVLW  1F
004B:  ANDWF  03,F
004C:  MOVLW  19
004D:  BSF    03.5
004E:  MOVWF  19
004F:  MOVLW  A6
0050:  MOVWF  18
0051:  MOVLW  90
0052:  BCF    03.5
0053:  MOVWF  18
0054:  BSF    03.5
0055:  BSF    1F.0
0056:  BSF    1F.1
0057:  BSF    1F.2
0058:  BCF    1F.3
0059:  MOVLW  07
005A:  MOVWF  1C
....................  
....................    setup_adc_ports(NO_ANALOGS); 
*
005F:  BSF    03.5
0060:  BSF    1F.0
0061:  BSF    1F.1
0062:  BSF    1F.2
0063:  BCF    1F.3
....................    setup_adc(ADC_OFF); 
0064:  BCF    03.5
0065:  BCF    1F.0
....................    setup_spi(SPI_SS_DISABLED); 
0066:  BCF    14.5
0067:  BCF    29.5
0068:  MOVF   29,W
0069:  BSF    03.5
006A:  MOVWF  07
006B:  BCF    03.5
006C:  BSF    29.4
006D:  MOVF   29,W
006E:  BSF    03.5
006F:  MOVWF  07
0070:  BCF    03.5
0071:  BCF    29.3
0072:  MOVF   29,W
0073:  BSF    03.5
0074:  MOVWF  07
0075:  MOVLW  01
0076:  BCF    03.5
0077:  MOVWF  14
0078:  MOVLW  00
0079:  BSF    03.5
007A:  MOVWF  14
....................    
....................     
....................    setup_timer_2(T2_DISABLED,0,1); 
007B:  MOVWF  78
007C:  BCF    03.5
007D:  MOVWF  12
007E:  MOVLW  00
007F:  BSF    03.5
0080:  MOVWF  12
....................    setup_comparator(NC_NC_NC_NC); 
0081:  MOVLW  07
0082:  MOVWF  1C
0083:  MOVF   05,W
0084:  MOVLW  03
0085:  MOVWF  77
0086:  DECFSZ 77,F
0087:  GOTO   086
0088:  MOVF   1C,W
0089:  BCF    03.5
008A:  BCF    0D.6
....................    setup_vref(FALSE); 
008B:  BSF    03.5
008C:  CLRF   1D
....................     
....................     
....................    set_tris_b(0x00); 
008D:  MOVLW  00
008E:  MOVWF  06
....................    output_b(0x00); 
008F:  BCF    03.5
0090:  CLRF   06
....................     
....................    
....................     
....................    setup_timer_1(T1_INTERNAL | T1_DIV_BY_4); 
0091:  MOVLW  A5
0092:  MOVWF  10
....................    set_timer1(64286); 
0093:  MOVLW  FB
0094:  MOVWF  0F
0095:  MOVLW  1E
0096:  MOVWF  0E
....................    
....................    enable_interrupts(INT_timer1); //int_timer1 kesmesi aktif edilyor 
0097:  BSF    03.5
0098:  BSF    0C.0
....................    enable_interrupts(GLOBAL); 
0099:  MOVLW  C0
009A:  BCF    03.5
009B:  IORWF  0B,F
....................     
....................    while(1); 
009C:  GOTO   09C
.................... } 
....................  
009D:  SLEEP

Configuration Fuses:
   Word  1: 3F39   XT NOWDT NOPUT NODEBUG NOPROTECT NOBROWNOUT NOLVP NOCPD NOWRT
