CCS PCM C Compiler, Version 4.068, 61971               15-Mar-12 22:21

               Filename: C:\Users\rclk\Desktop\pic  c denemeleri\Timer0 Uygulamasý-1\Timer0 Uygulamasý-1.lst

               ROM used: 160 words (2%)
                         Largest free fragment is 2048
               RAM used: 16 (4%) at main() level
                         16 (4%) worst case
               Stack:    1 worst case (0 in main + 1 for interrupts)

*
0000:  MOVLW  00
0001:  MOVWF  0A
0002:  GOTO   044
0003:  NOP
0004:  MOVWF  7F
0005:  SWAPF  03,W
0006:  CLRF   03
0007:  MOVWF  21
0008:  MOVF   0A,W
0009:  MOVWF  20
000A:  CLRF   0A
000B:  MOVF   04,W
000C:  MOVWF  22
000D:  MOVF   77,W
000E:  MOVWF  23
000F:  MOVF   78,W
0010:  MOVWF  24
0011:  MOVF   79,W
0012:  MOVWF  25
0013:  MOVF   7A,W
0014:  MOVWF  26
0015:  MOVF   7B,W
0016:  MOVWF  27
0017:  BCF    03.7
0018:  BCF    03.5
0019:  BTFSS  0B.5
001A:  GOTO   01D
001B:  BTFSC  0B.2
001C:  GOTO   030
001D:  MOVF   22,W
001E:  MOVWF  04
001F:  MOVF   23,W
0020:  MOVWF  77
0021:  MOVF   24,W
0022:  MOVWF  78
0023:  MOVF   25,W
0024:  MOVWF  79
0025:  MOVF   26,W
0026:  MOVWF  7A
0027:  MOVF   27,W
0028:  MOVWF  7B
0029:  MOVF   20,W
002A:  MOVWF  0A
002B:  SWAPF  21,W
002C:  MOVWF  03
002D:  SWAPF  7F,F
002E:  SWAPF  7F,W
002F:  RETFIE
0030:  BCF    0A.3
0031:  BCF    0A.4
0032:  GOTO   033
.................... #include "C:\Users\rclk\Desktop\pic  c denemeleri\Timer0 Uygulamasý-1\Timer0 Uygulamasý-1.h" 
.................... #include <16F877A.h> 
.................... //////// Standard Header file for the PIC16F877A device //////////////// 
.................... #device PIC16F877A 
.................... #list 
....................  
.................... #device adc=8 
....................  
.................... #FUSES NOWDT                    //No Watch Dog Timer 
.................... #FUSES XT                       //Low power osc < 200 khz 
.................... #FUSES NOPUT                    //No Power Up Timer 
.................... #FUSES NOPROTECT                //Code not protected from reading 
.................... #FUSES NODEBUG                  //No Debug mode for ICD 
.................... #FUSES NOBROWNOUT               //No brownout reset 
.................... #FUSES NOLVP                    //No low voltage prgming, B3(PIC16) or B5(PIC18) used for I/O 
.................... #FUSES NOCPD                    //No EE protection 
.................... #FUSES WRT_50%                  //Lower half of Program Memory is Write Protected 
....................  
.................... #use delay(clock=4000000) 
.................... #use rs232(baud=9600,parity=N,xmit=PIN_C6,rcv=PIN_C7,bits=8) 
....................  
....................  
....................  
.................... #use fast_io(b) 
....................  
.................... int i=0; 
*
0057:  BCF    03.5
0058:  CLRF   28
.................... #int_timer0 //timer0 kesmesi 
.................... void timer0_kesme() 
.................... { 
....................  set_timer0(60); //timer0 degeri belirleniyor 
*
0033:  MOVLW  3C
0034:  MOVWF  01
....................  i++; 
0035:  INCF   28,F
....................   
....................  if(i==10) 
0036:  MOVF   28,W
0037:  SUBLW  0A
0038:  BTFSC  03.2
....................  output_high(pin_b0); 
0039:  BSF    06.0
....................   
....................  if(i==20) 
003A:  MOVF   28,W
003B:  SUBLW  14
003C:  BTFSS  03.2
003D:  GOTO   040
....................  {  
....................   output_low(pin_b0); 
003E:  BCF    06.0
....................   i=0; 
003F:  CLRF   28
....................  } 
....................   
....................   
.................... } 
0040:  BCF    0B.2
0041:  BCF    0A.3
0042:  BCF    0A.4
0043:  GOTO   01D
.................... void main() 
.................... { 
0044:  CLRF   04
0045:  BCF    03.7
0046:  MOVLW  1F
0047:  ANDWF  03,F
0048:  MOVLW  19
0049:  BSF    03.5
004A:  MOVWF  19
004B:  MOVLW  A6
004C:  MOVWF  18
004D:  MOVLW  90
004E:  BCF    03.5
004F:  MOVWF  18
0050:  BSF    03.5
0051:  BSF    1F.0
0052:  BSF    1F.1
0053:  BSF    1F.2
0054:  BCF    1F.3
0055:  MOVLW  07
0056:  MOVWF  1C
....................  
....................    setup_adc_ports(NO_ANALOGS); 
*
005B:  BSF    03.5
005C:  BSF    1F.0
005D:  BSF    1F.1
005E:  BSF    1F.2
005F:  BCF    1F.3
....................    setup_adc(ADC_OFF); 
0060:  BCF    03.5
0061:  BCF    1F.0
....................    setup_spi(SPI_SS_DISABLED); 
0062:  BCF    14.5
0063:  BCF    29.5
0064:  MOVF   29,W
0065:  BSF    03.5
0066:  MOVWF  07
0067:  BCF    03.5
0068:  BSF    29.4
0069:  MOVF   29,W
006A:  BSF    03.5
006B:  MOVWF  07
006C:  BCF    03.5
006D:  BCF    29.3
006E:  MOVF   29,W
006F:  BSF    03.5
0070:  MOVWF  07
0071:  MOVLW  01
0072:  BCF    03.5
0073:  MOVWF  14
0074:  MOVLW  00
0075:  BSF    03.5
0076:  MOVWF  14
....................    setup_timer_0(RTCC_INTERNAL|RTCC_DIV_1); 
0077:  MOVF   01,W
0078:  ANDLW  C7
0079:  IORLW  08
007A:  MOVWF  01
....................    setup_timer_1(T1_DISABLED); 
007B:  BCF    03.5
007C:  CLRF   10
....................    setup_timer_2(T2_DISABLED,0,1); 
007D:  MOVLW  00
007E:  MOVWF  78
007F:  MOVWF  12
0080:  MOVLW  00
0081:  BSF    03.5
0082:  MOVWF  12
....................    setup_comparator(NC_NC_NC_NC); 
0083:  MOVLW  07
0084:  MOVWF  1C
0085:  MOVF   05,W
0086:  MOVLW  03
0087:  MOVWF  77
0088:  DECFSZ 77,F
0089:  GOTO   088
008A:  MOVF   1C,W
008B:  BCF    03.5
008C:  BCF    0D.6
....................    setup_vref(FALSE); 
008D:  BSF    03.5
008E:  CLRF   1D
....................     
....................    set_tris_b(0x00); 
008F:  MOVLW  00
0090:  MOVWF  06
....................    output_b(0x00); 
0091:  BCF    03.5
0092:  CLRF   06
....................     
....................    setup_timer_0(RTCC_INTERNAL | RTCC_DIV_256); //timer0 ayarlarý yapýlýyor 
0093:  BSF    03.5
0094:  MOVF   01,W
0095:  ANDLW  C0
0096:  IORLW  07
0097:  MOVWF  01
....................    set_timer0(60); 
0098:  MOVLW  3C
0099:  BCF    03.5
009A:  MOVWF  01
....................    
....................    enable_interrupts(INT_timer0); //int_timer0 kesmesi aktif edilyor 
009B:  BSF    0B.5
....................    enable_interrupts(GLOBAL); 
009C:  MOVLW  C0
009D:  IORWF  0B,F
....................     
....................    while(1); 
009E:  GOTO   09E
.................... } 
009F:  SLEEP

Configuration Fuses:
   Word  1: 3939   XT NOWDT NOPUT NODEBUG NOPROTECT NOBROWNOUT NOLVP NOCPD WRT_50%
