CCS PCM C Compiler, Version 4.074, 49549               04-Eyl-12 19:51

               Filename: E:\DONANIM_PROJE\PÝC C\4\display_uygulamasý\main.lst

               ROM used: 144 words (2%)
                         Largest free fragment is 2048
               RAM used: 9 (2%) at main() level
                         9 (2%) worst case
               Stack:    1 locations

*
0000:  MOVLW  00
0001:  MOVWF  0A
0002:  GOTO   02F
0003:  NOP
.................... #include "E:\DONANIM_PROJE\PÝC C\4\display_uygulamasý\main.h" 
.................... #include <16F877A.h> 
.................... //////// Standard Header file for the PIC16F877A device //////////////// 
.................... #device PIC16F877A 
.................... #list 
....................  
.................... #device adc=8 
....................  
.................... #FUSES NOWDT                    //No Watch Dog Timer 
.................... #FUSES XT                       //Low power osc < 200 khz 
.................... #FUSES NOPUT                    //No Power Up Timer 
.................... #FUSES NOPROTECT                //Code not protected from reading 
.................... #FUSES NODEBUG                  //No Debug mode for ICD 
.................... #FUSES NOBROWNOUT               //No brownout reset 
.................... #FUSES NOLVP                    //No low voltage prgming, B3(PIC16) or B5(PIC18) used for I/O 
.................... #FUSES NOCPD                    //No EE protection 
.................... #FUSES NOWRT                    //Program memory not write protected 
....................  
.................... #use delay(clock=40000000) 
*
0018:  MOVLW  22
0019:  MOVWF  04
001A:  BCF    03.7
001B:  MOVF   00,W
001C:  BTFSC  03.2
001D:  GOTO   02C
001E:  MOVLW  0C
001F:  MOVWF  78
0020:  CLRF   77
0021:  DECFSZ 77,F
0022:  GOTO   021
0023:  DECFSZ 78,F
0024:  GOTO   020
0025:  MOVLW  F7
0026:  MOVWF  77
0027:  DECFSZ 77,F
0028:  GOTO   027
0029:  GOTO   02A
002A:  DECFSZ 00,F
002B:  GOTO   01E
002C:  BCF    0A.3
002D:  BCF    0A.4
002E:  GOTO   08C (RETURN)
.................... #use rs232(baud=9600,parity=N,xmit=PIN_C6,rcv=PIN_C7,bits=8) 
....................  
....................  
....................  
....................  
.................... #define SIZE 10 
....................  
.................... #use fast_io(b) 
....................  
.................... const int display[16]={0x3F, 0x06, 0x5B, 0x4F, 0x66, 0x6D, 0x7C, 0x07, 0x7F, 0x6F, 0x77, 0x7C, 0x39, 0x5E, 0x79, 0x71}; 
....................  
.................... int i; 
....................  
.................... void main() 
.................... { 
002F:  CLRF   04
0030:  BCF    03.7
0031:  MOVLW  1F
0032:  ANDWF  03,F
0033:  MOVLW  40
0034:  BSF    03.5
0035:  MOVWF  19
0036:  MOVLW  A2
0037:  MOVWF  18
0038:  MOVLW  90
0039:  BCF    03.5
003A:  MOVWF  18
003B:  BSF    03.5
003C:  BSF    1F.0
003D:  BSF    1F.1
003E:  BSF    1F.2
003F:  BCF    1F.3
0040:  MOVLW  07
0041:  MOVWF  1C
....................  
....................    setup_adc_ports(NO_ANALOGS); 
*
0045:  BSF    03.5
0046:  BSF    1F.0
0047:  BSF    1F.1
0048:  BSF    1F.2
0049:  BCF    1F.3
....................    setup_adc(ADC_OFF); 
004A:  BCF    03.5
004B:  BCF    1F.0
....................    setup_psp(PSP_DISABLED); 
004C:  BSF    03.5
004D:  BCF    09.4
....................    setup_spi(SPI_SS_DISABLED); 
004E:  BCF    03.5
004F:  BCF    14.5
0050:  BCF    21.5
0051:  MOVF   21,W
0052:  BSF    03.5
0053:  MOVWF  07
0054:  BCF    03.5
0055:  BSF    21.4
0056:  MOVF   21,W
0057:  BSF    03.5
0058:  MOVWF  07
0059:  BCF    03.5
005A:  BCF    21.3
005B:  MOVF   21,W
005C:  BSF    03.5
005D:  MOVWF  07
005E:  MOVLW  01
005F:  BCF    03.5
0060:  MOVWF  14
0061:  MOVLW  00
0062:  BSF    03.5
0063:  MOVWF  14
....................    setup_timer_0(RTCC_INTERNAL|RTCC_DIV_1); 
0064:  MOVF   01,W
0065:  ANDLW  C7
0066:  IORLW  08
0067:  MOVWF  01
....................    setup_timer_1(T1_DISABLED); 
0068:  BCF    03.5
0069:  CLRF   10
....................    setup_timer_2(T2_DISABLED,0,1); 
006A:  MOVLW  00
006B:  MOVWF  78
006C:  MOVWF  12
006D:  MOVLW  00
006E:  BSF    03.5
006F:  MOVWF  12
....................    setup_comparator(NC_NC_NC_NC); 
0070:  MOVLW  07
0071:  MOVWF  1C
0072:  MOVF   05,W
0073:  MOVLW  21
0074:  MOVWF  77
0075:  DECFSZ 77,F
0076:  GOTO   075
0077:  MOVF   1C,W
0078:  BCF    03.5
0079:  BCF    0D.6
....................    setup_vref(FALSE); 
007A:  BSF    03.5
007B:  CLRF   1D
....................     
....................    set_tris_b(0x00); 
007C:  MOVLW  00
007D:  MOVWF  06
....................    output_b(0x00); 
007E:  BCF    03.5
007F:  CLRF   06
....................     
....................    while(1) 
....................    { 
....................     for(i=0;i<16;i++) 
0080:  CLRF   20
0081:  MOVF   20,W
0082:  SUBLW  0F
0083:  BTFSS  03.0
0084:  GOTO   08E
....................     { 
....................     output_b(display[i]); 
0085:  MOVF   20,W
0086:  CALL   004
0087:  MOVWF  22
0088:  MOVWF  06
....................     delay_ms(SIZE); 
0089:  MOVLW  0A
008A:  MOVWF  22
008B:  GOTO   018
....................     } 
008C:  INCF   20,F
008D:  GOTO   081
....................     
....................     
....................    } 
008E:  GOTO   080
....................    
.................... }  
....................  
008F:  SLEEP

Configuration Fuses:
   Word  1: 3F39   XT NOWDT NOPUT NODEBUG NOPROTECT NOBROWNOUT NOLVP NOCPD NOWRT
