CCS PCM C Compiler, Version 4.074, 49549               28-Aðu-12 19:59

               Filename: E:\DONANIM_PROJE\PÝC C\3\karýþýkled\main.lst

               ROM used: 192 words (2%)
                         Largest free fragment is 2048
               RAM used: 8 (2%) at main() level
                         9 (2%) worst case
               Stack:    1 locations

*
0000:  MOVLW  00
0001:  MOVWF  0A
0002:  GOTO   019
0003:  NOP
.................... #include "E:\DONANIM_PROJE\PÝC C\3\karýþýkled\main.h" 
.................... #include <16F877A.h> 
.................... //////// Standard Header file for the PIC16F877A device //////////////// 
.................... #device PIC16F877A 
.................... #list 
....................  
.................... #device adc=8 
....................  
.................... #FUSES NOWDT                    //No Watch Dog Timer 
.................... #FUSES XT                       //Low power osc < 200 khz 
.................... #FUSES NOPUT                    //No Power Up Timer 
.................... #FUSES NOPROTECT                //Code not protected from reading 
.................... #FUSES NODEBUG                  //No Debug mode for ICD 
.................... #FUSES NOBROWNOUT               //No brownout reset 
.................... #FUSES NOLVP                    //No low voltage prgming, B3(PIC16) or B5(PIC18) used for I/O 
.................... #FUSES NOCPD                    //No EE protection 
.................... #FUSES NOWRT                    //Program memory not write protected 
....................  
.................... #use delay(clock=4000000) 
*
0004:  MOVLW  22
0005:  MOVWF  04
0006:  BCF    03.7
0007:  MOVF   00,W
0008:  BTFSC  03.2
0009:  GOTO   018
000A:  MOVLW  01
000B:  MOVWF  78
000C:  CLRF   77
000D:  DECFSZ 77,F
000E:  GOTO   00D
000F:  DECFSZ 78,F
0010:  GOTO   00C
0011:  MOVLW  4A
0012:  MOVWF  77
0013:  DECFSZ 77,F
0014:  GOTO   013
0015:  GOTO   016
0016:  DECFSZ 00,F
0017:  GOTO   00A
0018:  RETLW  00
.................... #use rs232(baud=9600,parity=N,xmit=PIN_C6,rcv=PIN_C7,bits=8) 
....................  
....................  
....................  
.................... int btsyc=0; 
*
002C:  BCF    03.5
002D:  CLRF   20
.................... void main() 
.................... { 
*
0019:  CLRF   04
001A:  BCF    03.7
001B:  MOVLW  1F
001C:  ANDWF  03,F
001D:  MOVLW  19
001E:  BSF    03.5
001F:  MOVWF  19
0020:  MOVLW  A6
0021:  MOVWF  18
0022:  MOVLW  90
0023:  BCF    03.5
0024:  MOVWF  18
0025:  BSF    03.5
0026:  BSF    1F.0
0027:  BSF    1F.1
0028:  BSF    1F.2
0029:  BCF    1F.3
002A:  MOVLW  07
002B:  MOVWF  1C
....................  
....................    setup_adc_ports(NO_ANALOGS); 
*
0030:  BSF    03.5
0031:  BSF    1F.0
0032:  BSF    1F.1
0033:  BSF    1F.2
0034:  BCF    1F.3
....................    setup_adc(ADC_OFF); 
0035:  BCF    03.5
0036:  BCF    1F.0
....................     
....................     
....................     
....................    setup_psp(PSP_DISABLED); 
0037:  BSF    03.5
0038:  BCF    09.4
....................    setup_spi(SPI_SS_DISABLED); 
0039:  BCF    03.5
003A:  BCF    14.5
003B:  BCF    21.5
003C:  MOVF   21,W
003D:  BSF    03.5
003E:  MOVWF  07
003F:  BCF    03.5
0040:  BSF    21.4
0041:  MOVF   21,W
0042:  BSF    03.5
0043:  MOVWF  07
0044:  BCF    03.5
0045:  BCF    21.3
0046:  MOVF   21,W
0047:  BSF    03.5
0048:  MOVWF  07
0049:  MOVLW  01
004A:  BCF    03.5
004B:  MOVWF  14
004C:  MOVLW  00
004D:  BSF    03.5
004E:  MOVWF  14
....................    setup_timer_0(RTCC_INTERNAL|RTCC_DIV_1); 
004F:  MOVF   01,W
0050:  ANDLW  C7
0051:  IORLW  08
0052:  MOVWF  01
....................    setup_timer_1(T1_DISABLED); 
0053:  BCF    03.5
0054:  CLRF   10
....................    setup_timer_2(T2_DISABLED,0,1); 
0055:  MOVLW  00
0056:  MOVWF  78
0057:  MOVWF  12
0058:  MOVLW  00
0059:  BSF    03.5
005A:  MOVWF  12
....................    setup_comparator(NC_NC_NC_NC); 
005B:  MOVLW  07
005C:  MOVWF  1C
005D:  MOVF   05,W
005E:  MOVLW  03
005F:  MOVWF  77
0060:  DECFSZ 77,F
0061:  GOTO   060
0062:  MOVF   1C,W
0063:  BCF    03.5
0064:  BCF    0D.6
....................    setup_vref(FALSE); 
0065:  BSF    03.5
0066:  CLRF   1D
....................  
....................  
.................... set_tris_a(0x001); 
0067:  MOVLW  01
0068:  MOVWF  05
.................... set_tris_b(0x00); 
0069:  MOVLW  00
006A:  MOVWF  06
....................  
.................... output_b(0x00); 
006B:  CLRF   06
006C:  BCF    03.5
006D:  CLRF   06
....................  
.................... while(1){ 
....................  
.................... if(input(pin_a0)) 
006E:  BSF    03.5
006F:  BSF    05.0
0070:  BCF    03.5
0071:  BTFSS  05.0
0072:  GOTO   079
.................... { 
.................... btsyc++; 
0073:  INCF   20,F
....................  
.................... while(input(pin_a0)); 
0074:  BSF    03.5
0075:  BSF    05.0
0076:  BCF    03.5
0077:  BTFSC  05.0
0078:  GOTO   074
.................... } 
....................  if(btsyc==1) 
0079:  DECFSZ 20,W
007A:  GOTO   082
.................... { 
.................... delay_ms(150); 
007B:  MOVLW  96
007C:  MOVWF  22
007D:  CALL   004
.................... output_high(pin_b0); 
007E:  BSF    03.5
007F:  BCF    06.0
0080:  BCF    03.5
0081:  BSF    06.0
.................... } 
....................  
.................... if(btsyc==2){ 
0082:  MOVF   20,W
0083:  SUBLW  02
0084:  BTFSS  03.2
0085:  GOTO   08D
....................  
.................... delay_ms(150); 
0086:  MOVLW  96
0087:  MOVWF  22
0088:  CALL   004
....................  
.................... output_high(pin_b1); 
0089:  BSF    03.5
008A:  BCF    06.1
008B:  BCF    03.5
008C:  BSF    06.1
....................  
.................... } 
....................  
.................... if(btsyc==3) 
008D:  MOVF   20,W
008E:  SUBLW  03
008F:  BTFSS  03.2
0090:  GOTO   098
.................... { 
....................  
.................... delay_ms(150); 
0091:  MOVLW  96
0092:  MOVWF  22
0093:  CALL   004
....................  
.................... output_high(pin_b2); 
0094:  BSF    03.5
0095:  BCF    06.2
0096:  BCF    03.5
0097:  BSF    06.2
.................... } 
.................... if(btsyc==4){ 
0098:  MOVF   20,W
0099:  SUBLW  04
009A:  BTFSS  03.2
009B:  GOTO   0B7
....................  
.................... delay_ms(150); 
009C:  MOVLW  96
009D:  MOVWF  22
009E:  CALL   004
....................  
.................... output_toggle(pin_b0); 
009F:  BSF    03.5
00A0:  BCF    06.0
00A1:  MOVLW  01
00A2:  BCF    03.5
00A3:  XORWF  06,F
....................  
.................... delay_ms(150); 
00A4:  MOVLW  96
00A5:  MOVWF  22
00A6:  CALL   004
....................  
.................... output_toggle(pin_b1); 
00A7:  BSF    03.5
00A8:  BCF    06.1
00A9:  MOVLW  02
00AA:  BCF    03.5
00AB:  XORWF  06,F
....................  
.................... delay_ms(150); 
00AC:  MOVLW  96
00AD:  MOVWF  22
00AE:  CALL   004
.................... output_toggle(pin_b2); 
00AF:  BSF    03.5
00B0:  BCF    06.2
00B1:  MOVLW  04
00B2:  BCF    03.5
00B3:  XORWF  06,F
....................  
.................... delay_ms(150); 
00B4:  MOVLW  96
00B5:  MOVWF  22
00B6:  CALL   004
.................... } 
....................  
.................... if(btsyc==5) 
00B7:  MOVF   20,W
00B8:  SUBLW  05
00B9:  BTFSS  03.2
00BA:  GOTO   0BE
....................  
.................... btsyc==0; 
00BB:  MOVF   20,F
00BC:  BTFSS  03.2
00BD:  MOVLW  00
.................... } 
00BE:  GOTO   06E
.................... } 
00BF:  SLEEP

Configuration Fuses:
   Word  1: 3F39   XT NOWDT NOPUT NODEBUG NOPROTECT NOBROWNOUT NOLVP NOCPD NOWRT
