CCS PCM C Compiler, Version 4.074, 49549               26-Aðu-12 19:20

               Filename: C:\Users\Dell\Desktop\led yakma_\main.lst

               ROM used: 137 words (2%)
                         Largest free fragment is 2048
               RAM used: 7 (2%) at main() level
                         8 (2%) worst case
               Stack:    1 locations

*
0000:  MOVLW  00
0001:  MOVWF  0A
0002:  GOTO   019
0003:  NOP
.................... #include "C:\Users\Dell\Desktop\led yakma_\main.h" 
.................... #include <16F877A.h> 
.................... //////// Standard Header file for the PIC16F877A device //////////////// 
.................... #device PIC16F877A 
.................... #list 
....................  
.................... #device adc=8 
....................  
.................... #FUSES NOWDT                    //No Watch Dog Timer 
.................... #FUSES XT                      //Low power osc < 200 khz 
.................... #FUSES NOPUT                    //No Power Up Timer 
.................... #FUSES NOPROTECT                //Code not protected from reading 
.................... #FUSES NODEBUG                  //No Debug mode for ICD 
.................... #FUSES NOBROWNOUT               //No brownout reset 
.................... #FUSES NOLVP                    //No low voltage prgming, B3(PIC16) or B5(PIC18) used for I/O 
.................... #FUSES NOCPD                    //No EE protection 
.................... #FUSES NOWRT                    //Program memory not write protected 
....................  
.................... #use delay(clock=40000000) 
*
0004:  MOVLW  21
0005:  MOVWF  04
0006:  BCF    03.7
0007:  MOVF   00,W
0008:  BTFSC  03.2
0009:  GOTO   018
000A:  MOVLW  0C
000B:  MOVWF  78
000C:  CLRF   77
000D:  DECFSZ 77,F
000E:  GOTO   00D
000F:  DECFSZ 78,F
0010:  GOTO   00C
0011:  MOVLW  F7
0012:  MOVWF  77
0013:  DECFSZ 77,F
0014:  GOTO   013
0015:  GOTO   016
0016:  DECFSZ 00,F
0017:  GOTO   00A
0018:  RETLW  00
.................... #use rs232(baud=9600,parity=N,xmit=PIN_C6,rcv=PIN_C7,bits=8) 
....................  
....................  
....................  
....................  
.................... void main() 
.................... { 
0019:  CLRF   04
001A:  BCF    03.7
001B:  MOVLW  1F
001C:  ANDWF  03,F
001D:  MOVLW  40
001E:  BSF    03.5
001F:  MOVWF  19
0020:  MOVLW  A2
0021:  MOVWF  18
0022:  MOVLW  90
0023:  BCF    03.5
0024:  MOVWF  18
0025:  BSF    03.5
0026:  BSF    1F.0
0027:  BSF    1F.1
0028:  BSF    1F.2
0029:  BCF    1F.3
002A:  MOVLW  07
002B:  MOVWF  1C
....................  
....................    setup_adc_ports(NO_ANALOGS); 
*
002F:  BSF    03.5
0030:  BSF    1F.0
0031:  BSF    1F.1
0032:  BSF    1F.2
0033:  BCF    1F.3
....................    setup_adc(ADC_OFF); 
0034:  BCF    03.5
0035:  BCF    1F.0
....................    setup_psp(PSP_DISABLED); 
0036:  BSF    03.5
0037:  BCF    09.4
....................    setup_spi(SPI_SS_DISABLED); 
0038:  BCF    03.5
0039:  BCF    14.5
003A:  BCF    20.5
003B:  MOVF   20,W
003C:  BSF    03.5
003D:  MOVWF  07
003E:  BCF    03.5
003F:  BSF    20.4
0040:  MOVF   20,W
0041:  BSF    03.5
0042:  MOVWF  07
0043:  BCF    03.5
0044:  BCF    20.3
0045:  MOVF   20,W
0046:  BSF    03.5
0047:  MOVWF  07
0048:  MOVLW  01
0049:  BCF    03.5
004A:  MOVWF  14
004B:  MOVLW  00
004C:  BSF    03.5
004D:  MOVWF  14
....................    setup_timer_0(RTCC_INTERNAL|RTCC_DIV_1); 
004E:  MOVF   01,W
004F:  ANDLW  C7
0050:  IORLW  08
0051:  MOVWF  01
....................    setup_timer_1(T1_DISABLED); 
0052:  BCF    03.5
0053:  CLRF   10
....................    setup_timer_2(T2_DISABLED,0,1); 
0054:  MOVLW  00
0055:  MOVWF  78
0056:  MOVWF  12
0057:  MOVLW  00
0058:  BSF    03.5
0059:  MOVWF  12
....................    setup_comparator(NC_NC_NC_NC); 
005A:  MOVLW  07
005B:  MOVWF  1C
005C:  MOVF   05,W
005D:  MOVLW  21
005E:  MOVWF  77
005F:  DECFSZ 77,F
0060:  GOTO   05F
0061:  MOVF   1C,W
0062:  BCF    03.5
0063:  BCF    0D.6
....................    setup_vref(FALSE); 
0064:  BSF    03.5
0065:  CLRF   1D
....................  
....................   set_tris_b(0x00); 
0066:  MOVLW  00
0067:  MOVWF  06
....................   output_b(0x00); 
0068:  CLRF   06
0069:  BCF    03.5
006A:  CLRF   06
....................    
....................   while(1) 
....................   { 
....................   output_high(pin_b0); 
006B:  BSF    03.5
006C:  BCF    06.0
006D:  BCF    03.5
006E:  BSF    06.0
....................   delay_ms(250); 
006F:  MOVLW  FA
0070:  MOVWF  21
0071:  CALL   004
....................   output_low(pin_b0); 
0072:  BSF    03.5
0073:  BCF    06.0
0074:  BCF    03.5
0075:  BCF    06.0
....................   delay_ms(250); 
0076:  MOVLW  FA
0077:  MOVWF  21
0078:  CALL   004
....................   output_high(pin_b1); 
0079:  BSF    03.5
007A:  BCF    06.1
007B:  BCF    03.5
007C:  BSF    06.1
....................   delay_ms(250); 
007D:  MOVLW  FA
007E:  MOVWF  21
007F:  CALL   004
....................   output_low(pin_b1); 
0080:  BSF    03.5
0081:  BCF    06.1
0082:  BCF    03.5
0083:  BCF    06.1
....................   delay_ms(250); 
0084:  MOVLW  FA
0085:  MOVWF  21
0086:  CALL   004
....................    
....................    
....................    
....................   } 
0087:  GOTO   06B
....................  
.................... } 
0088:  SLEEP

Configuration Fuses:
   Word  1: 3F39   XT NOWDT NOPUT NODEBUG NOPROTECT NOBROWNOUT NOLVP NOCPD NOWRT
